; Function Attrs: nounwind uwtable
define dso_local ptr @dbRandomKey(ptr noundef %0) local_unnamed_addr #0 {
  %2 = load ptr, ptr %0, align 8, !tbaa !6
  %3 = tail call i64 @kvstoreSize(ptr noundef %2) #20
  %4 = getelementptr inbounds nuw i8, ptr %0, i64 8
  %5 = load ptr, ptr %4, align 8, !tbaa !72
  %6 = tail call i64 @kvstoreSize(ptr noundef %5) #20
  %7 = load ptr, ptr %0, align 8, !tbaa !6
  %8 = tail call i32 @kvstoreGetFairRandomDictIndex(ptr noundef %7) #20
  %9 = load ptr, ptr %0, align 8, !tbaa !6
  %10 = tail call ptr @kvstoreDictGetFairRandomKey(ptr noundef %9, i32 noundef %8) #20
  %11 = icmp eq ptr %10, null
  br i1 %11, label %._crit_edge, label %.lr.ph

.lr.ph:                                           ; preds = %1
  %12 = icmp eq i64 %3, %6
  %.fr = freeze i1 %12
  br i1 %.fr, label %.lr.ph.split, label %.lr.ph.split.us

.lr.ph.split.us:                                  ; preds = %.lr.ph, %39
  %13 = phi ptr [ %43, %39 ], [ %10, %.lr.ph ]
  %14 = tail call ptr @dictGetKey(ptr noundef nonnull %13) #20
  %15 = getelementptr inbounds i8, ptr %14, i64 -1
  %16 = load i8, ptr %15, align 1, !tbaa !76
  %17 = zext i8 %16 to i32
  %18 = and i32 %17, 7
  switch i32 %18, label %sdslen.exit.us [
    i32 0, label %34
    i32 1, label %30
    i32 2, label %26
    i32 3, label %22
    i32 4, label %19
  ]

19:                                               ; preds = %.lr.ph.split.us
  %20 = getelementptr inbounds i8, ptr %14, i64 -17
  %21 = load i64, ptr %20, align 1, !tbaa !17
  br label %sdslen.exit.us

22:                                               ; preds = %.lr.ph.split.us
  %23 = getelementptr inbounds i8, ptr %14, i64 -9
  %24 = load i32, ptr %23, align 1, !tbaa !79
  %25 = zext i32 %24 to i64
  br label %sdslen.exit.us

26:                                               ; preds = %.lr.ph.split.us
  %27 = getelementptr inbounds i8, ptr %14, i64 -5
  %28 = load i16, ptr %27, align 1, !tbaa !77
  %29 = zext i16 %28 to i64
  br label %sdslen.exit.us

30:                                               ; preds = %.lr.ph.split.us
  %31 = getelementptr inbounds i8, ptr %14, i64 -3
  %32 = load i8, ptr %31, align 1, !tbaa !76
  %33 = zext i8 %32 to i64
  br label %sdslen.exit.us

34:                                               ; preds = %.lr.ph.split.us
  %35 = lshr i32 %17, 3
  %36 = zext nneg i32 %35 to i64
  br label %sdslen.exit.us

sdslen.exit.us:                                   ; preds = %34, %30, %26, %22, %19, %.lr.ph.split.us
  %.0.i.us = phi i64 [ %21, %19 ], [ %25, %22 ], [ %29, %26 ], [ %33, %30 ], [ %36, %34 ], [ 0, %.lr.ph.split.us ]
  %37 = tail call ptr @createStringObject(ptr noundef nonnull %14, i64 noundef %.0.i.us) #20
  %38 = tail call i32 @expireIfNeeded(ptr noundef nonnull %0, ptr noundef %37, i32 noundef 0)
  %.not.us = icmp eq i32 %38, 0
  br i1 %.not.us, label %._crit_edge, label %39

39:                                               ; preds = %sdslen.exit.us
  tail call void @decrRefCount(ptr noundef %37) #20
  %40 = load ptr, ptr %0, align 8, !tbaa !6
  %41 = tail call i32 @kvstoreGetFairRandomDictIndex(ptr noundef %40) #20
  %42 = load ptr, ptr %0, align 8, !tbaa !6
  %43 = tail call ptr @kvstoreDictGetFairRandomKey(ptr noundef %42, i32 noundef %41) #20
  %44 = icmp eq ptr %43, null
  br i1 %44, label %._crit_edge, label %.lr.ph.split.us

.lr.ph.split:                                     ; preds = %.lr.ph, %76
  %45 = phi ptr [ %80, %76 ], [ %10, %.lr.ph ]
  %.01928 = phi i32 [ %.2, %76 ], [ 100, %.lr.ph ]
  %46 = tail call ptr @dictGetKey(ptr noundef nonnull %45) #20
  %47 = getelementptr inbounds i8, ptr %46, i64 -1
  %48 = load i8, ptr %47, align 1, !tbaa !76
  %49 = zext i8 %48 to i32
  %50 = and i32 %49, 7
  switch i32 %50, label %sdslen.exit [
    i32 0, label %51
    i32 1, label %54
    i32 2, label %58
    i32 3, label %62
    i32 4, label %66
  ]

51:                                               ; preds = %.lr.ph.split
  %52 = lshr i32 %49, 3
  %53 = zext nneg i32 %52 to i64
  br label %sdslen.exit

54:                                               ; preds = %.lr.ph.split
  %55 = getelementptr inbounds i8, ptr %46, i64 -3
  %56 = load i8, ptr %55, align 1, !tbaa !76
  %57 = zext i8 %56 to i64
  br label %sdslen.exit

58:                                               ; preds = %.lr.ph.split
  %59 = getelementptr inbounds i8, ptr %46, i64 -5
  %60 = load i16, ptr %59, align 1, !tbaa !77
  %61 = zext i16 %60 to i64
  br label %sdslen.exit

62:                                               ; preds = %.lr.ph.split
  %63 = getelementptr inbounds i8, ptr %46, i64 -9
  %64 = load i32, ptr %63, align 1, !tbaa !79
  %65 = zext i32 %64 to i64
  br label %sdslen.exit

66:                                               ; preds = %.lr.ph.split
  %67 = getelementptr inbounds i8, ptr %46, i64 -17
  %68 = load i64, ptr %67, align 1, !tbaa !17
  br label %sdslen.exit

sdslen.exit:                                      ; preds = %.lr.ph.split, %51, %54, %58, %62, %66
  %.0.i = phi i64 [ %68, %66 ], [ %65, %62 ], [ %61, %58 ], [ %57, %54 ], [ %53, %51 ], [ 0, %.lr.ph.split ]
  %69 = tail call ptr @createStringObject(ptr noundef nonnull %46, i64 noundef %.0.i) #20
  %70 = load ptr, ptr getelementptr inbounds nuw (i8, ptr @server, i64 7264), align 8
  %.not34 = icmp eq ptr %70, null
  br i1 %.not34, label %74, label %71

71:                                               ; preds = %sdslen.exit
  %72 = add nsw i32 %.01928, -1
  %73 = icmp eq i32 %72, 0
  br i1 %73, label %._crit_edge, label %74

74:                                               ; preds = %71, %sdslen.exit
  %.2 = phi i32 [ %72, %71 ], [ %.01928, %sdslen.exit ]
  %75 = tail call i32 @expireIfNeeded(ptr noundef nonnull %0, ptr noundef %69, i32 noundef 0)
  %.not = icmp eq i32 %75, 0
  br i1 %.not, label %._crit_edge, label %76

76:                                               ; preds = %74
  tail call void @decrRefCount(ptr noundef %69) #20
  %77 = load ptr, ptr %0, align 8, !tbaa !6
  %78 = tail call i32 @kvstoreGetFairRandomDictIndex(ptr noundef %77) #20
  %79 = load ptr, ptr %0, align 8, !tbaa !6
  %80 = tail call ptr @kvstoreDictGetFairRandomKey(ptr noundef %79, i32 noundef %78) #20
  %81 = icmp eq ptr %80, null
  br i1 %81, label %._crit_edge, label %.lr.ph.split

._crit_edge:                                      ; preds = %sdslen.exit.us, %39, %74, %71, %76, %1
  %.1.ph = phi ptr [ null, %1 ], [ null, %76 ], [ %69, %71 ], [ %69, %74 ], [ null, %39 ], [ %37, %sdslen.exit.us ]
  ret ptr %.1.ph
}